target datalayout = "e-m:e-p270:32:32-p271:32:32-p272:64:64-i64:64-i128:128-f80:128-n8:16:32:64-S128"
target triple = "x86_64-pc-linux-gnu"

%struct._capture_file = type { ptr, i32, ptr, ptr, i8, i8, i8, i64, i16, i32, i32, i32, ptr, i32, i64, i32, i32, i32, i32, i8, i32, %struct.nstime_t, i32, ptr, ptr, ptr, i8, i8, i32, ptr, i8, i8, i8, i8, i8, i32, i32, i8, ptr, i32, i32, i8, %struct.packet_provider_data, i32, i32, %struct.epan_column_info, ptr, ptr, ptr, %struct.wtap_rec, %struct.Buffer, ptr, i64, i32 }
%struct.nstime_t = type { i64, i32 }
%struct.packet_provider_data = type { ptr, ptr, ptr, ptr, ptr, ptr }
%struct.epan_column_info = type { ptr, i32, ptr, ptr, ptr, %struct.col_expr_t, i8, ptr }
%struct.col_expr_t = type { ptr, ptr }
%struct.wtap_rec = type { i32, i32, i32, %struct.nstime_t, i32, %struct.nstime_t, i8, %union.anon, ptr, i8, %struct.Buffer, %struct.Buffer }
%union.anon = type { %struct.wtap_packet_header }
%struct.wtap_packet_header = type { i32, i32, i32, i32, %union.wtap_pseudo_header }
%union.wtap_pseudo_header = type { %struct.erf_mc_phdr }
%struct.erf_mc_phdr = type { %struct.erf_phdr, [16 x %struct.erf_ehdr], %union.anon.1 }
%struct.erf_phdr = type { i64, i8, i8, i16, i16, i16 }
%struct.erf_ehdr = type { i64 }
%union.anon.1 = type { i32 }
%struct.Buffer = type { ptr, i64, i64, i64 }
%struct.match_data = type { ptr, i64, ptr, ptr, ptr, i8, i8 }
%struct._proto_node = type { ptr, ptr, ptr, ptr, ptr, ptr, ptr }
%struct.field_info = type { ptr, i32, i32, i32, i32, i32, i32, ptr, ptr, ptr, i32, i32 }
%struct._item_label_t = type { [240 x i8], i64, i64 }

; Function Attrs: inlinehint nounwind null_pointer_is_valid sspstrong uwtable
define internal zeroext i1 @proto_item_is_hidden(ptr noundef %0) #17 {
  %2 = alloca i1, align 1
  %3 = alloca ptr, align 8
  store ptr %0, ptr %3, align 8
  %4 = load ptr, ptr %3, align 8
  %5 = icmp ne ptr %4, null
  br i1 %5, label %6, label %27

6:                                                ; preds = %1
  %7 = load ptr, ptr %3, align 8
  %8 = getelementptr inbounds nuw %struct._proto_node, ptr %7, i32 0, i32 5
  %9 = load ptr, ptr %8, align 8
  %10 = icmp ne ptr %9, null
  br i1 %10, label %11, label %27

11:                                               ; preds = %6
  %12 = load ptr, ptr %3, align 8
  %13 = getelementptr inbounds nuw %struct._proto_node, ptr %12, i32 0, i32 5
  %14 = load ptr, ptr %13, align 8
  %15 = icmp ne ptr %14, null
  br i1 %15, label %16, label %23

16:                                               ; preds = %11
  %17 = load ptr, ptr %3, align 8
  %18 = getelementptr inbounds nuw %struct._proto_node, ptr %17, i32 0, i32 5
  %19 = load ptr, ptr %18, align 8
  %20 = getelementptr inbounds nuw %struct.field_info, ptr %19, i32 0, i32 6
  %21 = load i32, ptr %20, align 4
  %22 = and i32 %21, 1
  br label %24

23:                                               ; preds = %11
  br label %24

24:                                               ; preds = %23, %16
  %25 = phi i32 [ %22, %16 ], [ 0, %23 ]
  %26 = icmp ne i32 %25, 0
  store i1 %26, ptr %2, align 1
  br label %28

27:                                               ; preds = %6, %1
  store i1 true, ptr %2, align 1
  br label %28

28:                                               ; preds = %27, %24
  %29 = load i1, ptr %2, align 1
  ret i1 %29
}

; Function Attrs: null_pointer_is_valid sspstrong uwtable
define internal void @match_subtree_text(ptr noundef %0, ptr noundef %1) #1 {
  %3 = alloca ptr, align 8
  %4 = alloca ptr, align 8
  %5 = alloca ptr, align 8
  %6 = alloca ptr, align 8
  %7 = alloca i64, align 8
  %8 = alloca ptr, align 8
  %9 = alloca ptr, align 8
  %10 = alloca [240 x i8], align 16
  %11 = alloca ptr, align 8
  %12 = alloca i64, align 8
  %13 = alloca i32, align 4
  %14 = alloca i32, align 4
  %15 = alloca i8, align 1
  %16 = alloca i64, align 8
  %17 = alloca i32, align 4
  store ptr %0, ptr %3, align 8
  store ptr %1, ptr %4, align 8
  call void @llvm.lifetime.start.p0(i64 8, ptr %5) #19
  %18 = load ptr, ptr %4, align 8
  store ptr %18, ptr %5, align 8
  call void @llvm.lifetime.start.p0(i64 8, ptr %6) #19
  %19 = load ptr, ptr %5, align 8
  %20 = getelementptr inbounds nuw %struct.match_data, ptr %19, i32 0, i32 0
  %21 = load ptr, ptr %20, align 8
  store ptr %21, ptr %6, align 8
  call void @llvm.lifetime.start.p0(i64 8, ptr %7) #19
  %22 = load ptr, ptr %5, align 8
  %23 = getelementptr inbounds nuw %struct.match_data, ptr %22, i32 0, i32 1
  %24 = load i64, ptr %23, align 8
  store i64 %24, ptr %7, align 8
  call void @llvm.lifetime.start.p0(i64 8, ptr %8) #19
  %25 = load ptr, ptr %5, align 8
  %26 = getelementptr inbounds nuw %struct.match_data, ptr %25, i32 0, i32 2
  %27 = load ptr, ptr %26, align 8
  store ptr %27, ptr %8, align 8
  call void @llvm.lifetime.start.p0(i64 8, ptr %9) #19
  %28 = load ptr, ptr %3, align 8
  %29 = getelementptr inbounds nuw %struct._proto_node, ptr %28, i32 0, i32 5
  %30 = load ptr, ptr %29, align 8
  store ptr %30, ptr %9, align 8
  call void @llvm.lifetime.start.p0(i64 240, ptr %10) #19
  call void @llvm.lifetime.start.p0(i64 8, ptr %11) #19
  call void @llvm.lifetime.start.p0(i64 8, ptr %12) #19
  call void @llvm.lifetime.start.p0(i64 4, ptr %13) #19
  call void @llvm.lifetime.start.p0(i64 4, ptr %14) #19
  call void @llvm.lifetime.start.p0(i64 1, ptr %15) #19
  call void @llvm.lifetime.start.p0(i64 8, ptr %16) #19
  store i64 0, ptr %16, align 8
  br label %31

31:                                               ; preds = %2
  br label %32

32:                                               ; preds = %31
  br label %33

33:                                               ; preds = %32
  %34 = load ptr, ptr %5, align 8
  %35 = getelementptr inbounds nuw %struct.match_data, ptr %34, i32 0, i32 5
  %36 = load i8, ptr %35, align 8, !range !8, !noundef !9
  %37 = trunc i8 %36 to i1
  br i1 %37, label %38, label %39

38:                                               ; preds = %33
  store i32 1, ptr %17, align 4
  br label %198

39:                                               ; preds = %33
  %40 = load ptr, ptr %3, align 8
  %41 = call zeroext i1 @proto_item_is_hidden(ptr noundef %40)
  br i1 %41, label %42, label %43

42:                                               ; preds = %39
  store i32 1, ptr %17, align 4
  br label %198

43:                                               ; preds = %39
  %44 = load ptr, ptr %5, align 8
  %45 = getelementptr inbounds nuw %struct.match_data, ptr %44, i32 0, i32 4
  %46 = load ptr, ptr %45, align 8
  %47 = icmp ne ptr %46, null
  br i1 %47, label %48, label %58

48:                                               ; preds = %43
  %49 = load ptr, ptr %9, align 8
  %50 = load ptr, ptr %5, align 8
  %51 = getelementptr inbounds nuw %struct.match_data, ptr %50, i32 0, i32 4
  %52 = load ptr, ptr %51, align 8
  %53 = icmp eq ptr %49, %52
  br i1 %53, label %54, label %57

54:                                               ; preds = %48
  %55 = load ptr, ptr %5, align 8
  %56 = getelementptr inbounds nuw %struct.match_data, ptr %55, i32 0, i32 4
  store ptr null, ptr %56, align 8
  br label %57

57:                                               ; preds = %54, %48
  br label %189

58:                                               ; preds = %43
  %59 = load ptr, ptr %9, align 8
  %60 = getelementptr inbounds nuw %struct.field_info, ptr %59, i32 0, i32 7
  %61 = load ptr, ptr %60, align 8
  %62 = icmp ne ptr %61, null
  br i1 %62, label %63, label %69

63:                                               ; preds = %58
  %64 = load ptr, ptr %9, align 8
  %65 = getelementptr inbounds nuw %struct.field_info, ptr %64, i32 0, i32 7
  %66 = load ptr, ptr %65, align 8
  %67 = getelementptr inbounds nuw %struct._item_label_t, ptr %66, i32 0, i32 0
  %68 = getelementptr inbounds [240 x i8], ptr %67, i64 0, i64 0
  store ptr %68, ptr %11, align 8
  br label %73

69:                                               ; preds = %58
  %70 = getelementptr inbounds [240 x i8], ptr %10, i64 0, i64 0
  store ptr %70, ptr %11, align 8
  %71 = load ptr, ptr %9, align 8
  %72 = getelementptr inbounds [240 x i8], ptr %10, i64 0, i64 0
  call void @proto_item_fill_label(ptr noundef %71, ptr noundef %72, ptr noundef null)
  br label %73

73:                                               ; preds = %69, %63
  %74 = load ptr, ptr %8, align 8
  %75 = getelementptr inbounds nuw %struct._capture_file, ptr %74, i32 0, i32 38
  %76 = load ptr, ptr %75, align 8
  %77 = icmp ne ptr %76, null
  br i1 %77, label %78, label %91

78:                                               ; preds = %73
  %79 = load ptr, ptr %8, align 8
  %80 = getelementptr inbounds nuw %struct._capture_file, ptr %79, i32 0, i32 38
  %81 = load ptr, ptr %80, align 8
  %82 = load ptr, ptr %11, align 8
  %83 = call zeroext i1 @ws_regex_matches(ptr noundef %81, ptr noundef %82)
  br i1 %83, label %84, label %90

84:                                               ; preds = %78
  %85 = load ptr, ptr %5, align 8
  %86 = getelementptr inbounds nuw %struct.match_data, ptr %85, i32 0, i32 5
  store i8 1, ptr %86, align 8
  %87 = load ptr, ptr %9, align 8
  %88 = load ptr, ptr %5, align 8
  %89 = getelementptr inbounds nuw %struct.match_data, ptr %88, i32 0, i32 3
  store ptr %87, ptr %89, align 8
  store i32 1, ptr %17, align 4
  br label %198

90:                                               ; preds = %78
  br label %188

91:                                               ; preds = %73
  %92 = load ptr, ptr %8, align 8
  %93 = getelementptr inbounds nuw %struct._capture_file, ptr %92, i32 0, i32 37
  %94 = load i8, ptr %93, align 8, !range !8, !noundef !9
  %95 = trunc i8 %94 to i1
  br i1 %95, label %96, label %175

96:                                               ; preds = %91
  %97 = load ptr, ptr %11, align 8
  %98 = call i64 @strlen(ptr noundef %97) #25
  store i64 %98, ptr %12, align 8
  store i32 0, ptr %14, align 4
  store i32 0, ptr %13, align 4
  br label %99

99:                                               ; preds = %171, %96
  %100 = load i32, ptr %13, align 4
  %101 = zext i32 %100 to i64
  %102 = load i64, ptr %12, align 8
  %103 = icmp ult i64 %101, %102
  br i1 %103, label %104, label %174

104:                                              ; preds = %99
  %105 = load i32, ptr %14, align 4
  %106 = icmp eq i32 %105, 0
  br i1 %106, label %107, label %118

107:                                              ; preds = %104
  %108 = load i64, ptr %16, align 8
  %109 = icmp eq i64 %108, 0
  br i1 %109, label %110, label %118

110:                                              ; preds = %107
  %111 = load i64, ptr %12, align 8
  %112 = load i32, ptr %13, align 4
  %113 = zext i32 %112 to i64
  %114 = sub i64 %111, %113
  %115 = load i64, ptr %7, align 8
  %116 = icmp ult i64 %114, %115
  br i1 %116, label %117, label %118

117:                                              ; preds = %110
  br label %174

118:                                              ; preds = %110, %107, %104
  %119 = load ptr, ptr %11, align 8
  %120 = load i32, ptr %13, align 4
  %121 = zext i32 %120 to i64
  %122 = getelementptr i8, ptr %119, i64 %121
  %123 = load i8, ptr %122, align 1
  store i8 %123, ptr %15, align 1
  %124 = load i8, ptr %15, align 1
  %125 = call signext i8 @g_ascii_toupper(i8 noundef signext %124) #26
  store i8 %125, ptr %15, align 1
  %126 = load i64, ptr %16, align 8
  %127 = icmp ugt i64 %126, 0
  br i1 %127, label %128, label %141

128:                                              ; preds = %118
  %129 = load i32, ptr %14, align 4
  %130 = icmp eq i32 %129, 0
  br i1 %130, label %131, label %141

131:                                              ; preds = %128
  %132 = load i8, ptr %15, align 1
  %133 = zext i8 %132 to i32
  %134 = load ptr, ptr %6, align 8
  %135 = getelementptr i8, ptr %134, i64 0
  %136 = load i8, ptr %135, align 1
  %137 = sext i8 %136 to i32
  %138 = icmp eq i32 %133, %137
  br i1 %138, label %139, label %141

139:                                              ; preds = %131
  %140 = load i32, ptr %13, align 4
  store i32 %140, ptr %14, align 4
  br label %141

141:                                              ; preds = %139, %131, %128, %118
  %142 = load i8, ptr %15, align 1
  %143 = zext i8 %142 to i32
  %144 = load ptr, ptr %6, align 8
  %145 = load i64, ptr %16, align 8
  %146 = getelementptr i8, ptr %144, i64 %145
  %147 = load i8, ptr %146, align 1
  %148 = sext i8 %147 to i32
  %149 = icmp eq i32 %143, %148
  br i1 %149, label %150, label %163

150:                                              ; preds = %141
  %151 = load i64, ptr %16, align 8
  %152 = add i64 %151, 1
  store i64 %152, ptr %16, align 8
  %153 = load i64, ptr %16, align 8
  %154 = load i64, ptr %7, align 8
  %155 = icmp eq i64 %153, %154
  br i1 %155, label %156, label %162

156:                                              ; preds = %150
  %157 = load ptr, ptr %5, align 8
  %158 = getelementptr inbounds nuw %struct.match_data, ptr %157, i32 0, i32 5
  store i8 1, ptr %158, align 8
  %159 = load ptr, ptr %9, align 8
  %160 = load ptr, ptr %5, align 8
  %161 = getelementptr inbounds nuw %struct.match_data, ptr %160, i32 0, i32 3
  store ptr %159, ptr %161, align 8
  store i32 1, ptr %17, align 4
  br label %198

162:                                              ; preds = %150
  br label %170

163:                                              ; preds = %141
  %164 = load i32, ptr %14, align 4
  %165 = icmp ne i32 %164, 0
  br i1 %165, label %166, label %168

166:                                              ; preds = %163
  %167 = load i32, ptr %14, align 4
  store i32 %167, ptr %13, align 4
  store i64 1, ptr %16, align 8
  store i32 0, ptr %14, align 4
  br label %169

168:                                              ; preds = %163
  store i64 0, ptr %16, align 8
  br label %169

169:                                              ; preds = %168, %166
  br label %170

170:                                              ; preds = %169, %162
  br label %171

171:                                              ; preds = %170
  %172 = load i32, ptr %13, align 4
  %173 = add i32 %172, 1
  store i32 %173, ptr %13, align 4
  br label %99, !llvm.loop !22

174:                                              ; preds = %117, %99
  br label %187

175:                                              ; preds = %91
  %176 = load ptr, ptr %11, align 8
  %177 = load ptr, ptr %6, align 8
  %178 = call ptr @strstr(ptr noundef %176, ptr noundef %177) #25
  %179 = icmp ne ptr %178, null
  br i1 %179, label %180, label %186

180:                                              ; preds = %175
  %181 = load ptr, ptr %5, align 8
  %182 = getelementptr inbounds nuw %struct.match_data, ptr %181, i32 0, i32 5
  store i8 1, ptr %182, align 8
  %183 = load ptr, ptr %9, align 8
  %184 = load ptr, ptr %5, align 8
  %185 = getelementptr inbounds nuw %struct.match_data, ptr %184, i32 0, i32 3
  store ptr %183, ptr %185, align 8
  store i32 1, ptr %17, align 4
  br label %198

186:                                              ; preds = %175
  br label %187

187:                                              ; preds = %186, %174
  br label %188

188:                                              ; preds = %187, %90
  br label %189

189:                                              ; preds = %188, %57
  %190 = load ptr, ptr %3, align 8
  %191 = getelementptr inbounds nuw %struct._proto_node, ptr %190, i32 0, i32 0
  %192 = load ptr, ptr %191, align 8
  %193 = icmp ne ptr %192, null
  br i1 %193, label %194, label %197

194:                                              ; preds = %189
  %195 = load ptr, ptr %3, align 8
  %196 = load ptr, ptr %5, align 8
  call void @proto_tree_children_foreach(ptr noundef %195, ptr noundef @match_subtree_text, ptr noundef %196)
  br label %197

197:                                              ; preds = %194, %189
  store i32 0, ptr %17, align 4
  br label %198

198:                                              ; preds = %197, %180, %156, %84, %42, %38
  call void @llvm.lifetime.end.p0(i64 8, ptr %16) #19
  call void @llvm.lifetime.end.p0(i64 1, ptr %15) #19
  call void @llvm.lifetime.end.p0(i64 4, ptr %14) #19
  call void @llvm.lifetime.end.p0(i64 4, ptr %13) #19
  call void @llvm.lifetime.end.p0(i64 8, ptr %12) #19
  call void @llvm.lifetime.end.p0(i64 8, ptr %11) #19
  call void @llvm.lifetime.end.p0(i64 240, ptr %10) #19
  call void @llvm.lifetime.end.p0(i64 8, ptr %9) #19
  call void @llvm.lifetime.end.p0(i64 8, ptr %8) #19
  call void @llvm.lifetime.end.p0(i64 8, ptr %7) #19
  call void @llvm.lifetime.end.p0(i64 8, ptr %6) #19
  call void @llvm.lifetime.end.p0(i64 8, ptr %5) #19
  %199 = load i32, ptr %17, align 4
  switch i32 %199, label %201 [
    i32 0, label %200
    i32 1, label %200
  ]

200:                                              ; preds = %198, %198
  ret void

201:                                              ; preds = %198
  unreachable
}