; Function Attrs: null_pointer_is_valid sspstrong uwtable
define internal void @match_subtree_text(ptr noundef %0, ptr noundef %1) #1 {
  %3 = alloca [240 x i8], align 16
  %4 = load ptr, ptr %1, align 8
  %5 = getelementptr inbounds nuw i8, ptr %1, i64 8
  %6 = load i64, ptr %5, align 8
  %7 = getelementptr inbounds nuw i8, ptr %1, i64 16
  %8 = load ptr, ptr %7, align 8
  %9 = getelementptr inbounds nuw i8, ptr %0, i64 40
  %10 = load ptr, ptr %9, align 8
  call void @llvm.lifetime.start.p0(i64 240, ptr nonnull %3) #23
  %11 = getelementptr inbounds nuw i8, ptr %1, i64 40
  %12 = load i8, ptr %11, align 8, !range !9, !noundef !10
  %13 = trunc nuw i8 %12 to i1
  %.not.i = icmp eq ptr %0, null
  %or.cond78 = or i1 %.not.i, %13
  %.not7.i = icmp eq ptr %10, null
  %or.cond79 = select i1 %or.cond78, i1 true, i1 %.not7.i
  br i1 %or.cond79, label %proto_item_is_hidden.exit.thread, label %proto_item_is_hidden.exit

proto_item_is_hidden.exit:                        ; preds = %2
  %14 = getelementptr inbounds nuw i8, ptr %10, i64 28
  %15 = load i32, ptr %14, align 4
  %16 = and i32 %15, 1
  %.not80 = icmp eq i32 %16, 0
  br i1 %.not80, label %17, label %proto_item_is_hidden.exit.thread

17:                                               ; preds = %proto_item_is_hidden.exit
  %18 = getelementptr inbounds nuw i8, ptr %1, i64 32
  %19 = load ptr, ptr %18, align 8
  %.not = icmp eq ptr %19, null
  br i1 %.not, label %23, label %20

20:                                               ; preds = %17
  %21 = icmp eq ptr %10, %19
  br i1 %21, label %22, label %.loopexit

22:                                               ; preds = %20
  store ptr null, ptr %18, align 8
  br label %.loopexit

23:                                               ; preds = %17
  %24 = getelementptr inbounds nuw i8, ptr %10, i64 32
  %25 = load ptr, ptr %24, align 8
  %.not70 = icmp eq ptr %25, null
  br i1 %.not70, label %26, label %27

26:                                               ; preds = %23
  call void @proto_item_fill_label(ptr noundef nonnull %10, ptr noundef nonnull %3, ptr noundef null)
  br label %27

27:                                               ; preds = %23, %26
  %.063 = phi ptr [ %3, %26 ], [ %25, %23 ]
  %28 = getelementptr inbounds nuw i8, ptr %8, i64 200
  %29 = load ptr, ptr %28, align 8
  %.not71 = icmp eq ptr %29, null
  br i1 %.not71, label %34, label %30

30:                                               ; preds = %27
  %31 = call zeroext i1 @ws_regex_matches(ptr noundef nonnull %29, ptr noundef nonnull %.063)
  br i1 %31, label %32, label %.loopexit

32:                                               ; preds = %30
  store i8 1, ptr %11, align 8
  %33 = getelementptr inbounds nuw i8, ptr %1, i64 24
  store ptr %10, ptr %33, align 8
  br label %proto_item_is_hidden.exit.thread

34:                                               ; preds = %27
  %35 = getelementptr inbounds nuw i8, ptr %8, i64 192
  %36 = load i8, ptr %35, align 8, !range !9, !noundef !10
  %37 = trunc nuw i8 %36 to i1
  br i1 %37, label %38, label %69

38:                                               ; preds = %34
  %39 = call i64 @strlen(ptr noundef nonnull dereferenceable(1) %.063) #26
  %.not85 = icmp eq i64 %39, 0
  br i1 %.not85, label %.loopexit, label %.lr.ph

.lr.ph:                                           ; preds = %38, %65
  %40 = phi i64 [ %67, %65 ], [ 0, %38 ]
  %.083 = phi i64 [ %.1, %65 ], [ 0, %38 ]
  %.05982 = phi i32 [ %.2, %65 ], [ 0, %38 ]
  %.06181 = phi i32 [ %66, %65 ], [ 0, %38 ]
  %41 = icmp eq i32 %.05982, 0
  %42 = icmp eq i64 %.083, 0
  %or.cond = and i1 %41, %42
  %43 = sub nuw i64 %39, %40
  %44 = icmp ult i64 %43, %6
  %or.cond76 = select i1 %or.cond, i1 %44, i1 false
  br i1 %or.cond76, label %.loopexit, label %45

45:                                               ; preds = %.lr.ph
  %46 = getelementptr i8, ptr %.063, i64 %40
  %47 = load i8, ptr %46, align 1
  %48 = call signext i8 @g_ascii_toupper(i8 noundef signext %47) #28
  %49 = icmp ne i64 %.083, 0
  %or.cond3 = and i1 %41, %49
  %50 = zext i8 %48 to i32
  br i1 %or.cond3, label %51, label %._crit_edge

51:                                               ; preds = %45
  %52 = load i8, ptr %4, align 1
  %53 = sext i8 %52 to i32
  %54 = icmp eq i32 %50, %53
  %spec.select = select i1 %54, i32 %.06181, i32 0
  br label %._crit_edge

._crit_edge:                                      ; preds = %45, %51
  %.160 = phi i32 [ %spec.select, %51 ], [ %.05982, %45 ]
  %55 = getelementptr i8, ptr %4, i64 %.083
  %56 = load i8, ptr %55, align 1
  %57 = sext i8 %56 to i32
  %58 = icmp eq i32 %50, %57
  br i1 %58, label %59, label %64

59:                                               ; preds = %._crit_edge
  %60 = add i64 %.083, 1
  %61 = icmp eq i64 %60, %6
  br i1 %61, label %62, label %65

62:                                               ; preds = %59
  store i8 1, ptr %11, align 8
  %63 = getelementptr inbounds nuw i8, ptr %1, i64 24
  store ptr %10, ptr %63, align 8
  br label %proto_item_is_hidden.exit.thread

64:                                               ; preds = %._crit_edge
  %.not73 = icmp ne i32 %.160, 0
  %.061..160 = select i1 %.not73, i32 %.160, i32 %.06181
  %. = zext i1 %.not73 to i64
  br label %65

65:                                               ; preds = %64, %59
  %.162 = phi i32 [ %.06181, %59 ], [ %.061..160, %64 ]
  %.2 = phi i32 [ %.160, %59 ], [ 0, %64 ]
  %.1 = phi i64 [ %60, %59 ], [ %., %64 ]
  %66 = add i32 %.162, 1
  %67 = zext i32 %66 to i64
  %68 = icmp ugt i64 %39, %67
  br i1 %68, label %.lr.ph, label %.loopexit, !llvm.loop !23

69:                                               ; preds = %34
  %70 = call ptr @strstr(ptr noundef nonnull dereferenceable(1) %.063, ptr noundef %4) #26
  %.not72 = icmp eq ptr %70, null
  br i1 %.not72, label %.loopexit, label %71

71:                                               ; preds = %69
  store i8 1, ptr %11, align 8
  %72 = getelementptr inbounds nuw i8, ptr %1, i64 24
  store ptr %10, ptr %72, align 8
  br label %proto_item_is_hidden.exit.thread

.loopexit:                                        ; preds = %65, %.lr.ph, %38, %30, %69, %20, %22
  %73 = load ptr, ptr %0, align 8
  %.not74 = icmp eq ptr %73, null
  br i1 %.not74, label %proto_item_is_hidden.exit.thread, label %74

74:                                               ; preds = %.loopexit
  call void @proto_tree_children_foreach(ptr noundef %0, ptr noundef nonnull @match_subtree_text, ptr noundef %1)
  br label %proto_item_is_hidden.exit.thread

proto_item_is_hidden.exit.thread:                 ; preds = %.loopexit, %74, %proto_item_is_hidden.exit, %2, %71, %62, %32
  call void @llvm.lifetime.end.p0(i64 240, ptr nonnull %3) #23
  ret void
}